target datalayout = "e-m:e-p270:32:32-p271:32:32-p272:64:64-i64:64-i128:128-f80:128-n8:16:32:64-S128"
target triple = "x86_64-pc-linux-gnu"

%struct.Branch = type { %struct.Rect, ptr }
%struct.Rect = type { [4 x i32] }
%struct.Node = type { i32, i32, [64 x %struct.Branch] }

; Function Attrs: nounwind uwtable
define internal i32 @RTreeClose2(ptr noundef %0, ptr noundef %1) #0 {
  %3 = alloca ptr, align 8
  %4 = alloca ptr, align 8
  %5 = alloca i32, align 4
  %6 = alloca i32, align 4
  store ptr %0, ptr %3, align 8, !tbaa !15
  store ptr %1, ptr %4, align 8, !tbaa !23
  %7 = load ptr, ptr %4, align 8, !tbaa !23
  %8 = getelementptr inbounds nuw %struct.Node, ptr %7, i32 0, i32 1
  %9 = load i32, ptr %8, align 4, !tbaa !24
  %10 = icmp sgt i32 %9, 0
  br i1 %10, label %11, label %52

11:                                               ; preds = %2
  call void @llvm.lifetime.start.p0(i64 4, ptr %5) #6
  store i32 0, ptr %5, align 4, !tbaa !27
  br label %12

12:                                               ; preds = %48, %11
  %13 = load i32, ptr %5, align 4, !tbaa !27
  %14 = icmp slt i32 %13, 64
  br i1 %14, label %16, label %15

15:                                               ; preds = %12
  call void @llvm.lifetime.end.p0(i64 4, ptr %5) #6
  br label %51

16:                                               ; preds = %12
  %17 = load ptr, ptr %4, align 8, !tbaa !23
  %18 = getelementptr inbounds nuw %struct.Node, ptr %17, i32 0, i32 2
  %19 = load i32, ptr %5, align 4, !tbaa !27
  %20 = sext i32 %19 to i64
  %21 = getelementptr inbounds [64 x %struct.Branch], ptr %18, i64 0, i64 %20
  %22 = getelementptr inbounds nuw %struct.Branch, ptr %21, i32 0, i32 1
  %23 = load ptr, ptr %22, align 8, !tbaa !28
  %24 = icmp ne ptr %23, null
  br i1 %24, label %26, label %25

25:                                               ; preds = %16
  br label %48

26:                                               ; preds = %16
  %27 = load ptr, ptr %3, align 8, !tbaa !15
  %28 = load ptr, ptr %4, align 8, !tbaa !23
  %29 = getelementptr inbounds nuw %struct.Node, ptr %28, i32 0, i32 2
  %30 = load i32, ptr %5, align 4, !tbaa !27
  %31 = sext i32 %30 to i64
  %32 = getelementptr inbounds [64 x %struct.Branch], ptr %29, i64 0, i64 %31
  %33 = getelementptr inbounds nuw %struct.Branch, ptr %32, i32 0, i32 1
  %34 = load ptr, ptr %33, align 8, !tbaa !28
  %35 = call i32 @RTreeClose2(ptr noundef %27, ptr noundef %34)
  %36 = icmp ne i32 %35, 0
  br i1 %36, label %47, label %37

37:                                               ; preds = %26
  %38 = load ptr, ptr %4, align 8, !tbaa !23
  %39 = getelementptr inbounds nuw %struct.Node, ptr %38, i32 0, i32 2
  %40 = load i32, ptr %5, align 4, !tbaa !27
  %41 = sext i32 %40 to i64
  %42 = getelementptr inbounds [64 x %struct.Branch], ptr %39, i64 0, i64 %41
  %43 = getelementptr inbounds nuw %struct.Branch, ptr %42, i32 0, i32 1
  %44 = load ptr, ptr %43, align 8, !tbaa !28
  call void @free(ptr noundef %44) #6
  %45 = load ptr, ptr %4, align 8, !tbaa !23
  %46 = load i32, ptr %5, align 4, !tbaa !27
  call void @DisconBranch(ptr noundef %45, i32 noundef %46)
  br label %47

47:                                               ; preds = %37, %26
  br label %48

48:                                               ; preds = %47, %25
  %49 = load i32, ptr %5, align 4, !tbaa !27
  %50 = add nsw i32 %49, 1
  store i32 %50, ptr %5, align 4, !tbaa !27
  br label %12, !llvm.loop !30

51:                                               ; preds = %15
  br label %74

52:                                               ; preds = %2
  call void @llvm.lifetime.start.p0(i64 4, ptr %6) #6
  store i32 0, ptr %6, align 4, !tbaa !27
  br label %53

53:                                               ; preds = %70, %52
  %54 = load i32, ptr %6, align 4, !tbaa !27
  %55 = icmp slt i32 %54, 64
  br i1 %55, label %57, label %56

56:                                               ; preds = %53
  call void @llvm.lifetime.end.p0(i64 4, ptr %6) #6
  br label %73

57:                                               ; preds = %53
  %58 = load ptr, ptr %4, align 8, !tbaa !23
  %59 = getelementptr inbounds nuw %struct.Node, ptr %58, i32 0, i32 2
  %60 = load i32, ptr %6, align 4, !tbaa !27
  %61 = sext i32 %60 to i64
  %62 = getelementptr inbounds [64 x %struct.Branch], ptr %59, i64 0, i64 %61
  %63 = getelementptr inbounds nuw %struct.Branch, ptr %62, i32 0, i32 1
  %64 = load ptr, ptr %63, align 8, !tbaa !28
  %65 = icmp ne ptr %64, null
  br i1 %65, label %67, label %66

66:                                               ; preds = %57
  br label %70

67:                                               ; preds = %57
  %68 = load ptr, ptr %4, align 8, !tbaa !23
  %69 = load i32, ptr %6, align 4, !tbaa !27
  call void @DisconBranch(ptr noundef %68, i32 noundef %69)
  br label %70

70:                                               ; preds = %67, %66
  %71 = load i32, ptr %6, align 4, !tbaa !27
  %72 = add nsw i32 %71, 1
  store i32 %72, ptr %6, align 4, !tbaa !27
  br label %53, !llvm.loop !31

73:                                               ; preds = %56
  br label %74

74:                                               ; preds = %73, %51
  ret i32 0
}