; Function Attrs: nounwind uwtable
define internal fastcc void @RTreeClose2(ptr noundef %0) unnamed_addr #3 {
  %2 = getelementptr inbounds nuw i8, ptr %0, i64 4
  %3 = load i32, ptr %2, align 4, !tbaa !13
  %4 = icmp sgt i32 %3, 0
  %invariant.gep4 = getelementptr inbounds nuw i8, ptr %0, i64 24
  br i1 %4, label %.preheader, label %.preheader1

.preheader:                                       ; preds = %1, %10
  %indvars.iv10 = phi i64 [ %indvars.iv.next11, %10 ], [ 0, %1 ]
  %5 = mul nuw nsw i64 %indvars.iv10, 24
  %gep5 = getelementptr inbounds nuw i8, ptr %invariant.gep4, i64 %5
  %6 = load ptr, ptr %gep5, align 8, !tbaa !22
  %.not22 = icmp eq ptr %6, null
  br i1 %.not22, label %10, label %7

7:                                                ; preds = %.preheader
  tail call fastcc void @RTreeClose2(ptr noundef nonnull %6)
  %8 = load ptr, ptr %gep5, align 8, !tbaa !22
  tail call void @free(ptr noundef %8) #8
  %9 = trunc nuw nsw i64 %indvars.iv10 to i32
  tail call void @DisconBranch(ptr noundef nonnull %0, i32 noundef %9) #8
  br label %10

10:                                               ; preds = %7, %.preheader
  %indvars.iv.next11 = add nuw nsw i64 %indvars.iv10, 1
  %exitcond14.not = icmp eq i64 %indvars.iv.next11, 64
  br i1 %exitcond14.not, label %.loopexit, label %.preheader, !llvm.loop !24

.preheader1:                                      ; preds = %1, %15
  %indvars.iv = phi i64 [ %indvars.iv.next, %15 ], [ 0, %1 ]
  %11 = mul nuw nsw i64 %indvars.iv, 24
  %gep = getelementptr inbounds nuw i8, ptr %invariant.gep4, i64 %11
  %12 = load ptr, ptr %gep, align 8, !tbaa !22
  %.not = icmp eq ptr %12, null
  br i1 %.not, label %15, label %13

13:                                               ; preds = %.preheader1
  %14 = trunc nuw nsw i64 %indvars.iv to i32
  tail call void @DisconBranch(ptr noundef nonnull %0, i32 noundef %14) #8
  br label %15

15:                                               ; preds = %.preheader1, %13
  %indvars.iv.next = add nuw nsw i64 %indvars.iv, 1
  %exitcond.not = icmp eq i64 %indvars.iv.next, 64
  br i1 %exitcond.not, label %.loopexit, label %.preheader1, !llvm.loop !25

.loopexit:                                        ; preds = %15, %10
  ret void
}